target datalayout = "e-m:e-p270:32:32-p271:32:32-p272:64:64-i64:64-i128:128-f80:128-n8:16:32:64-S128"
target triple = "x86_64-pc-linux-gnu"

%struct.DICTIONARY_ID = type { i64 }

; Function Attrs: mustprogress uwtable
define noundef i32 @_ZN4toku16locktree_manager15find_by_dict_idERKPNS_8locktreeERK13DICTIONARY_ID(ptr noundef nonnull align 8 dereferenceable(8) %0, ptr noundef nonnull align 8 dereferenceable(8) %1) #0 align 2 {
  %3 = alloca i32, align 4
  %4 = alloca ptr, align 8
  %5 = alloca ptr, align 8
  %6 = alloca %struct.DICTIONARY_ID, align 8
  %7 = alloca %struct.DICTIONARY_ID, align 8
  store ptr %0, ptr %4, align 8, !tbaa !57
  store ptr %1, ptr %5, align 8, !tbaa !60
  call void @llvm.lifetime.start.p0(i64 8, ptr %6) #17
  %8 = load ptr, ptr %4, align 8, !tbaa !57
  %9 = load ptr, ptr %8, align 8, !tbaa !62
  %10 = call i64 @_ZNK4toku8locktree11get_dict_idEv(ptr noundef nonnull align 8 dereferenceable(400) %9)
  %11 = getelementptr inbounds nuw %struct.DICTIONARY_ID, ptr %6, i32 0, i32 0
  store i64 %10, ptr %11, align 8
  %12 = getelementptr inbounds nuw %struct.DICTIONARY_ID, ptr %6, i32 0, i32 0
  %13 = load i64, ptr %12, align 8, !tbaa !64
  %14 = load ptr, ptr %5, align 8, !tbaa !60
  %15 = getelementptr inbounds nuw %struct.DICTIONARY_ID, ptr %14, i32 0, i32 0
  %16 = load i64, ptr %15, align 8, !tbaa !64
  %17 = icmp ult i64 %13, %16
  call void @llvm.lifetime.end.p0(i64 8, ptr %6) #17
  br i1 %17, label %18, label %19

18:                                               ; preds = %2
  store i32 -1, ptr %3, align 4
  br label %32

19:                                               ; preds = %2
  call void @llvm.lifetime.start.p0(i64 8, ptr %7) #17
  %20 = load ptr, ptr %4, align 8, !tbaa !57
  %21 = load ptr, ptr %20, align 8, !tbaa !62
  %22 = call i64 @_ZNK4toku8locktree11get_dict_idEv(ptr noundef nonnull align 8 dereferenceable(400) %21)
  %23 = getelementptr inbounds nuw %struct.DICTIONARY_ID, ptr %7, i32 0, i32 0
  store i64 %22, ptr %23, align 8
  %24 = getelementptr inbounds nuw %struct.DICTIONARY_ID, ptr %7, i32 0, i32 0
  %25 = load i64, ptr %24, align 8, !tbaa !64
  %26 = load ptr, ptr %5, align 8, !tbaa !60
  %27 = getelementptr inbounds nuw %struct.DICTIONARY_ID, ptr %26, i32 0, i32 0
  %28 = load i64, ptr %27, align 8, !tbaa !64
  %29 = icmp eq i64 %25, %28
  call void @llvm.lifetime.end.p0(i64 8, ptr %7) #17
  br i1 %29, label %30, label %31

30:                                               ; preds = %19
  store i32 0, ptr %3, align 4
  br label %32

31:                                               ; preds = %19
  store i32 1, ptr %3, align 4
  br label %32

32:                                               ; preds = %31, %30, %18
  %33 = load i32, ptr %3, align 4
  ret i32 %33
}