; Function Attrs: mustprogress uwtable
define noundef range(i32 -1, 2) i32 @_ZN4toku16locktree_manager15find_by_dict_idERKPNS_8locktreeERK13DICTIONARY_ID(ptr noundef nonnull readonly align 8 captures(none) dereferenceable(8) %0, ptr noundef nonnull readonly align 8 captures(none) dereferenceable(8) %1) local_unnamed_addr #0 align 2 {
  %3 = load ptr, ptr %0, align 8, !tbaa !46
  %4 = tail call i64 @_ZNK4toku8locktree11get_dict_idEv(ptr noundef nonnull align 8 dereferenceable(400) %3)
  %5 = load i64, ptr %1, align 8, !tbaa !48
  %6 = icmp ult i64 %4, %5
  br i1 %6, label %12, label %7

7:                                                ; preds = %2
  %8 = load ptr, ptr %0, align 8, !tbaa !46
  %9 = tail call i64 @_ZNK4toku8locktree11get_dict_idEv(ptr noundef nonnull align 8 dereferenceable(400) %8)
  %10 = load i64, ptr %1, align 8, !tbaa !48
  %11 = icmp ne i64 %9, %10
  %. = zext i1 %11 to i32
  br label %12

12:                                               ; preds = %7, %2
  %.0 = phi i32 [ -1, %2 ], [ %., %7 ]
  ret i32 %.0
}